target datalayout = "e-m:e-p270:32:32-p271:32:32-p272:64:64-i64:64-i128:128-f80:128-n8:16:32:64-S128"
target triple = "x86_64-pc-linux-gnu"

%struct.imap_socket = type { [2 x i32], ptr }

@stderr = external global ptr, align 8
@.str.75 = private unnamed_addr constant [12 x i8] c"SSL_connect\00", align 1
@.str.78 = private unnamed_addr constant [20 x i8] c"%s: unexpected EOF\0A\00", align 1
@.str.107 = private unnamed_addr constant [6 x i8] c"write\00", align 1

; Function Attrs: nounwind uwtable
define internal void @socket_perror(ptr noundef %0, ptr noundef %1, i32 noundef %2) #0 {
  %4 = alloca ptr, align 8
  %5 = alloca ptr, align 8
  %6 = alloca i32, align 4
  %7 = alloca i32, align 4
  store ptr %0, ptr %4, align 8, !tbaa !29
  store ptr %1, ptr %5, align 8, !tbaa !93
  store i32 %2, ptr %6, align 4, !tbaa !4
  %8 = load ptr, ptr %5, align 8, !tbaa !93
  %9 = getelementptr inbounds nuw %struct.imap_socket, ptr %8, i32 0, i32 1
  %10 = load ptr, ptr %9, align 8, !tbaa !99
  %11 = icmp ne ptr %10, null
  br i1 %11, label %12, label %22

12:                                               ; preds = %3
  call void @llvm.lifetime.start.p0(i64 4, ptr %7) #11
  %13 = load ptr, ptr %5, align 8, !tbaa !93
  %14 = getelementptr inbounds nuw %struct.imap_socket, ptr %13, i32 0, i32 1
  %15 = load ptr, ptr %14, align 8, !tbaa !99
  %16 = load i32, ptr %6, align 4, !tbaa !4
  %17 = call i32 @SSL_get_error(ptr noundef %15, i32 noundef %16)
  store i32 %17, ptr %7, align 4, !tbaa !4
  %18 = load i32, ptr %7, align 4, !tbaa !4
  switch i32 %18, label %20 [
    i32 0, label %21
    i32 5, label %19
  ]

19:                                               ; preds = %12
  call void @perror(ptr noundef @.str.75)
  br label %21

20:                                               ; preds = %12
  call void @ssl_socket_perror(ptr noundef @.str.75)
  br label %21

21:                                               ; preds = %20, %19, %12
  call void @llvm.lifetime.end.p0(i64 4, ptr %7) #11
  br label %32

22:                                               ; preds = %3
  %23 = load i32, ptr %6, align 4, !tbaa !4
  %24 = icmp slt i32 %23, 0
  br i1 %24, label %25, label %27

25:                                               ; preds = %22
  %26 = load ptr, ptr %4, align 8, !tbaa !29
  call void @perror(ptr noundef %26)
  br label %31

27:                                               ; preds = %22
  %28 = load ptr, ptr @stderr, align 8, !tbaa !16
  %29 = load ptr, ptr %4, align 8, !tbaa !29
  %30 = call i32 (ptr, ptr, ...) @fprintf(ptr noundef %28, ptr noundef @.str.78, ptr noundef %29) #11
  br label %31

31:                                               ; preds = %27, %25
  br label %32

32:                                               ; preds = %31, %21
  ret void
}

; Function Attrs: nounwind uwtable
define internal i32 @socket_write(ptr noundef %0, ptr noundef %1, i32 noundef %2) #0 {
  %4 = alloca ptr, align 8
  %5 = alloca ptr, align 8
  %6 = alloca i32, align 4
  %7 = alloca i32, align 4
  store ptr %0, ptr %4, align 8, !tbaa !93
  store ptr %1, ptr %5, align 8, !tbaa !29
  store i32 %2, ptr %6, align 4, !tbaa !4
  call void @llvm.lifetime.start.p0(i64 4, ptr %7) #11
  %8 = load ptr, ptr %4, align 8, !tbaa !93
  %9 = getelementptr inbounds nuw %struct.imap_socket, ptr %8, i32 0, i32 1
  %10 = load ptr, ptr %9, align 8, !tbaa !99
  %11 = icmp ne ptr %10, null
  br i1 %11, label %12, label %19

12:                                               ; preds = %3
  %13 = load ptr, ptr %4, align 8, !tbaa !93
  %14 = getelementptr inbounds nuw %struct.imap_socket, ptr %13, i32 0, i32 1
  %15 = load ptr, ptr %14, align 8, !tbaa !99
  %16 = load ptr, ptr %5, align 8, !tbaa !29
  %17 = load i32, ptr %6, align 4, !tbaa !4
  %18 = call i32 @SSL_write(ptr noundef %15, ptr noundef %16, i32 noundef %17)
  store i32 %18, ptr %7, align 4, !tbaa !4
  br label %29

19:                                               ; preds = %3
  %20 = load ptr, ptr %4, align 8, !tbaa !93
  %21 = getelementptr inbounds nuw %struct.imap_socket, ptr %20, i32 0, i32 0
  %22 = getelementptr inbounds [2 x i32], ptr %21, i64 0, i64 1
  %23 = load i32, ptr %22, align 4, !tbaa !4
  %24 = load ptr, ptr %5, align 8, !tbaa !29
  %25 = load i32, ptr %6, align 4, !tbaa !4
  %26 = sext i32 %25 to i64
  %27 = call i64 @write_in_full(i32 noundef %23, ptr noundef %24, i64 noundef %26)
  %28 = trunc i64 %27 to i32
  store i32 %28, ptr %7, align 4, !tbaa !4
  br label %29

29:                                               ; preds = %19, %12
  %30 = load i32, ptr %7, align 4, !tbaa !4
  %31 = load i32, ptr %6, align 4, !tbaa !4
  %32 = icmp ne i32 %30, %31
  br i1 %32, label %33, label %52

33:                                               ; preds = %29
  %34 = load ptr, ptr %4, align 8, !tbaa !93
  %35 = load i32, ptr %7, align 4, !tbaa !4
  call void @socket_perror(ptr noundef @.str.107, ptr noundef %34, i32 noundef %35)
  %36 = load ptr, ptr %4, align 8, !tbaa !93
  %37 = getelementptr inbounds nuw %struct.imap_socket, ptr %36, i32 0, i32 0
  %38 = getelementptr inbounds [2 x i32], ptr %37, i64 0, i64 0
  %39 = load i32, ptr %38, align 8, !tbaa !4
  %40 = call i32 @close(i32 noundef %39)
  %41 = load ptr, ptr %4, align 8, !tbaa !93
  %42 = getelementptr inbounds nuw %struct.imap_socket, ptr %41, i32 0, i32 0
  %43 = getelementptr inbounds [2 x i32], ptr %42, i64 0, i64 1
  %44 = load i32, ptr %43, align 4, !tbaa !4
  %45 = call i32 @close(i32 noundef %44)
  %46 = load ptr, ptr %4, align 8, !tbaa !93
  %47 = getelementptr inbounds nuw %struct.imap_socket, ptr %46, i32 0, i32 0
  %48 = getelementptr inbounds [2 x i32], ptr %47, i64 0, i64 1
  store i32 -1, ptr %48, align 4, !tbaa !4
  %49 = load ptr, ptr %4, align 8, !tbaa !93
  %50 = getelementptr inbounds nuw %struct.imap_socket, ptr %49, i32 0, i32 0
  %51 = getelementptr inbounds [2 x i32], ptr %50, i64 0, i64 0
  store i32 -1, ptr %51, align 8, !tbaa !4
  br label %52

52:                                               ; preds = %33, %29
  %53 = load i32, ptr %7, align 4, !tbaa !4
  call void @llvm.lifetime.end.p0(i64 4, ptr %7) #11
  ret i32 %53
}