; Function Attrs: nounwind uwtable
define internal fastcc i32 @socket_write(ptr noundef captures(none) %0, ptr noundef %1, i32 noundef %2) unnamed_addr #0 {
  %4 = getelementptr inbounds nuw i8, ptr %0, i64 8
  %5 = load ptr, ptr %4, align 8, !tbaa !86
  %.not = icmp eq ptr %5, null
  br i1 %.not, label %8, label %6

6:                                                ; preds = %3
  %7 = tail call i32 @SSL_write(ptr noundef nonnull %5, ptr noundef %1, i32 noundef %2) #22
  br label %14

8:                                                ; preds = %3
  %9 = getelementptr inbounds nuw i8, ptr %0, i64 4
  %10 = load i32, ptr %9, align 4, !tbaa !19
  %11 = sext i32 %2 to i64
  %12 = tail call i64 @write_in_full(i32 noundef %10, ptr noundef %1, i64 noundef %11) #22
  %13 = trunc i64 %12 to i32
  br label %14

14:                                               ; preds = %8, %6
  %.0 = phi i32 [ %7, %6 ], [ %13, %8 ]
  %.not16 = icmp eq i32 %.0, %2
  br i1 %.not16, label %31, label %15

15:                                               ; preds = %14
  %.val = load ptr, ptr %4, align 8, !tbaa !86
  %.not.i = icmp eq ptr %.val, null
  br i1 %.not.i, label %20, label %16

16:                                               ; preds = %15
  %17 = tail call i32 @SSL_get_error(ptr noundef nonnull %.val, i32 noundef %.0) #22
  switch i32 %17, label %19 [
    i32 0, label %socket_perror.exit
    i32 5, label %18
  ]

18:                                               ; preds = %16
  tail call void @perror(ptr noundef nonnull @.str.75) #24
  br label %socket_perror.exit

19:                                               ; preds = %16
  tail call fastcc void @ssl_socket_perror(ptr noundef nonnull @.str.75)
  br label %socket_perror.exit

20:                                               ; preds = %15
  %21 = icmp slt i32 %.0, 0
  br i1 %21, label %22, label %23

22:                                               ; preds = %20
  tail call void @perror(ptr noundef nonnull @.str.107) #24
  br label %socket_perror.exit

23:                                               ; preds = %20
  %24 = load ptr, ptr @stderr, align 8, !tbaa !15
  %25 = tail call i32 (ptr, ptr, ...) @fprintf(ptr noundef %24, ptr noundef nonnull @.str.78, ptr noundef nonnull @.str.107) #26
  br label %socket_perror.exit

socket_perror.exit:                               ; preds = %16, %18, %19, %22, %23
  %26 = load i32, ptr %0, align 8, !tbaa !19
  %27 = tail call i32 @close(i32 noundef %26) #22
  %28 = getelementptr inbounds nuw i8, ptr %0, i64 4
  %29 = load i32, ptr %28, align 4, !tbaa !19
  %30 = tail call i32 @close(i32 noundef %29) #22
  store i32 -1, ptr %28, align 4, !tbaa !19
  store i32 -1, ptr %0, align 8, !tbaa !19
  br label %31

31:                                               ; preds = %socket_perror.exit, %14
  ret i32 %.0
}